target datalayout = "e-m:e-p270:32:32-p271:32:32-p272:64:64-i64:64-i128:128-f80:128-n8:16:32:64-S128"
target triple = "x86_64-pc-linux-gnu"

%struct.pmix_object_t = type { %union.pthread_mutex_t, ptr, i32, %struct.pmix_tma }
%struct.pmix_tma = type { ptr, ptr, ptr, ptr, ptr, ptr, ptr, ptr }
%union.pthread_mutex_t = type { %struct.__pthread_mutex_s }
%struct.__pthread_mutex_s = type { i32, i32, i32, i32, i32, i16, i16, %struct.__pthread_internal_list }
%struct.__pthread_internal_list = type { ptr, ptr }
%struct.timeval = type { i64, i64 }
%struct.event = type { %struct.event_callback, %union.anon.2, i32, ptr, %union.anon.4, i16, i16, %struct.timeval }
%struct.event_callback = type { %struct.anon.0, i16, i8, i8, %union.anon.1, ptr }
%struct.anon.0 = type { ptr, ptr }
%union.anon.1 = type { ptr }
%union.anon.2 = type { %struct.anon.3 }
%struct.anon.3 = type { ptr, ptr }
%union.anon.4 = type { %struct.anon.5 }
%struct.anon.5 = type { %struct.anon.6, %struct.timeval }
%struct.anon.6 = type { ptr, ptr }
%struct.pmix_iof_req_t = type { %struct.pmix_object_t, %struct.event, ptr, i64, i64, ptr, i64, i16, ptr, ptr, ptr }

; Function Attrs: nounwind uwtable
define internal void @myreg(i32 noundef %0, i16 noundef signext %1, ptr noundef %2) #0 {
  %4 = alloca i32, align 4
  %5 = alloca i16, align 2
  %6 = alloca ptr, align 8
  %7 = alloca ptr, align 8
  store i32 %0, ptr %4, align 4, !tbaa !81
  store i16 %1, ptr %5, align 2, !tbaa !12
  store ptr %2, ptr %6, align 8, !tbaa !14
  call void @llvm.lifetime.start.p0(i64 8, ptr %7) #13
  %8 = load ptr, ptr %6, align 8, !tbaa !14
  store ptr %8, ptr %7, align 8, !tbaa !14
  %9 = load ptr, ptr %7, align 8, !tbaa !14
  %10 = getelementptr inbounds nuw %struct.pmix_iof_req_t, ptr %9, i32 0, i32 9
  %11 = load ptr, ptr %10, align 8, !tbaa !73
  %12 = icmp ne ptr null, %11
  br i1 %12, label %13, label %23

13:                                               ; preds = %3
  %14 = load ptr, ptr %7, align 8, !tbaa !14
  %15 = getelementptr inbounds nuw %struct.pmix_iof_req_t, ptr %14, i32 0, i32 9
  %16 = load ptr, ptr %15, align 8, !tbaa !73
  %17 = load ptr, ptr %7, align 8, !tbaa !14
  %18 = getelementptr inbounds nuw %struct.pmix_iof_req_t, ptr %17, i32 0, i32 3
  %19 = load i64, ptr %18, align 8, !tbaa !72
  %20 = load ptr, ptr %7, align 8, !tbaa !14
  %21 = getelementptr inbounds nuw %struct.pmix_iof_req_t, ptr %20, i32 0, i32 10
  %22 = load ptr, ptr %21, align 8, !tbaa !74
  call void %16(i32 noundef 0, i64 noundef %19, ptr noundef %22)
  br label %23

23:                                               ; preds = %13, %3
  %24 = load ptr, ptr %7, align 8, !tbaa !14
  call void @process_cache(i32 noundef 0, i16 noundef signext 0, ptr noundef %24)
  call void @llvm.lifetime.end.p0(i64 8, ptr %7) #13
  ret void
}