; Function Attrs: nounwind uwtable
define internal void @myreg(i32 %0, i16 signext %1, ptr noundef %2) #0 {
  %4 = getelementptr inbounds nuw i8, ptr %2, i64 304
  %5 = load ptr, ptr %4, align 8, !tbaa !77
  %.not = icmp eq ptr %5, null
  br i1 %.not, label %11, label %6

6:                                                ; preds = %3
  %7 = getelementptr inbounds nuw i8, ptr %2, i64 256
  %8 = load i64, ptr %7, align 8, !tbaa !76
  %9 = getelementptr inbounds nuw i8, ptr %2, i64 312
  %10 = load ptr, ptr %9, align 8, !tbaa !78
  tail call void %5(i32 noundef 0, i64 noundef %8, ptr noundef %10) #18
  br label %11

11:                                               ; preds = %6, %3
  tail call void @process_cache(i32 poison, i16 signext poison, ptr noundef nonnull %2)
  ret void
}